; Function Attrs: mustprogress uwtable
define hidden noundef ptr @_ZN3api7context6mk_andEjPKP4expr(ptr noundef nonnull align 8 dereferenceable(3056) %0, i32 noundef %1, ptr noundef %2) local_unnamed_addr #3 align 2 {
  switch i32 %1, label %12 [
    i32 0, label %4
    i32 1, label %9
  ]

4:                                                ; preds = %3
  %5 = getelementptr inbounds nuw i8, ptr %0, i64 232
  %6 = load ptr, ptr %5, align 8, !tbaa !180
  %7 = getelementptr inbounds nuw i8, ptr %6, i64 856
  %8 = load ptr, ptr %7, align 8, !tbaa !472
  br label %16

9:                                                ; preds = %3
  %10 = load ptr, ptr %2, align 8, !tbaa !431
  tail call void @_ZN3api7context14save_ast_trailEP3ast(ptr noundef nonnull align 8 dereferenceable(3056) %0, ptr noundef %10)
  %11 = load ptr, ptr %2, align 8, !tbaa !431
  br label %16

12:                                               ; preds = %3
  %13 = getelementptr inbounds nuw i8, ptr %0, i64 232
  %14 = load ptr, ptr %13, align 8, !tbaa !180
  %15 = tail call noundef ptr @_ZN11ast_manager6mk_appEiijPKP4expr(ptr noundef nonnull align 8 dereferenceable(976) %14, i32 noundef 0, i32 noundef 5, i32 noundef %1, ptr noundef %2)
  tail call void @_ZN3api7context14save_ast_trailEP3ast(ptr noundef nonnull align 8 dereferenceable(3056) %0, ptr noundef %15)
  br label %16

16:                                               ; preds = %12, %9, %4
  %.0 = phi ptr [ %15, %12 ], [ %11, %9 ], [ %8, %4 ]
  ret ptr %.0
}